target datalayout = "e-m:e-p270:32:32-p271:32:32-p272:64:64-i64:64-i128:128-f80:128-n8:16:32:64-S128"
target triple = "x86_64-pc-linux-gnu"

%struct._object = type { %union.anon, ptr }
%union.anon = type { i64 }
%struct.anon = type { i32, i32 }
%struct._Py_DebugOffsets = type { [8 x i8], i64, i64, %struct._runtime_state, %struct._interpreter_state, %struct._thread_state, %struct._interpreter_frame, %struct._code_object, %struct._pyobject, %struct._type_object, %struct._tuple_object, %struct._list_object, %struct._set_object, %struct._dict_object, %struct._float_object, %struct._long_object, %struct._bytes_object, %struct._unicode_object, %struct._gc, %struct._gen_object }
%struct._runtime_state = type { i64, i64, i64 }
%struct._interpreter_state = type { i64, i64, i64, i64, i64, i64, i64, i64, i64, i64, i64, i64, i64 }
%struct._thread_state = type { i64, i64, i64, i64, i64, i64, i64, i64, i64 }
%struct._interpreter_frame = type { i64, i64, i64, i64, i64, i64, i64 }
%struct._code_object = type { i64, i64, i64, i64, i64, i64, i64, i64, i64, i64 }
%struct._pyobject = type { i64, i64 }
%struct._type_object = type { i64, i64, i64, i64 }
%struct._tuple_object = type { i64, i64, i64 }
%struct._list_object = type { i64, i64, i64 }
%struct._set_object = type { i64, i64, i64, i64 }
%struct._dict_object = type { i64, i64, i64 }
%struct._float_object = type { i64, i64 }
%struct._long_object = type { i64, i64, i64 }
%struct._bytes_object = type { i64, i64, i64 }
%struct._unicode_object = type { i64, i64, i64, i64 }
%struct._gc = type { i64, i64 }
%struct._gen_object = type { i64, i64, i64, i64 }
%struct.iovec = type { ptr, i64 }

@PyExc_OSError = external global ptr, align 8
@PyExc_RuntimeError = external global ptr, align 8
@.str.17 = private unnamed_addr constant [23 x i8] c"No function name found\00", align 1

; Function Attrs: alwaysinline nounwind uwtable
define internal i32 @_Py_IsImmortal(ptr noundef %0) #3 {
  %2 = alloca ptr, align 8
  store ptr %0, ptr %2, align 8, !tbaa !3
  %3 = load ptr, ptr %2, align 8, !tbaa !3
  %4 = getelementptr inbounds nuw %struct._object, ptr %3, i32 0, i32 0
  %5 = getelementptr inbounds nuw %struct.anon, ptr %4, i32 0, i32 0
  %6 = load i32, ptr %5, align 8, !tbaa !10
  %7 = icmp slt i32 %6, 0
  %8 = zext i1 %7 to i32
  ret i32 %8
}

; Function Attrs: alwaysinline nounwind uwtable
define internal void @Py_DECREF(ptr noundef %0) #3 {
  %2 = alloca ptr, align 8
  store ptr %0, ptr %2, align 8, !tbaa !3
  %3 = load ptr, ptr %2, align 8, !tbaa !3
  %4 = call i32 @_Py_IsImmortal(ptr noundef %3)
  %5 = icmp ne i32 %4, 0
  br i1 %5, label %6, label %7

6:                                                ; preds = %1
  br label %16

7:                                                ; preds = %1
  %8 = load ptr, ptr %2, align 8, !tbaa !3
  %9 = getelementptr inbounds nuw %struct._object, ptr %8, i32 0, i32 0
  %10 = getelementptr inbounds nuw %struct.anon, ptr %9, i32 0, i32 0
  %11 = load i32, ptr %10, align 8, !tbaa !10
  %12 = add i32 %11, -1
  store i32 %12, ptr %10, align 8, !tbaa !10
  %13 = icmp eq i32 %12, 0
  br i1 %13, label %14, label %16

14:                                               ; preds = %7
  %15 = load ptr, ptr %2, align 8, !tbaa !3
  call void @_Py_Dealloc(ptr noundef %15)
  br label %16

16:                                               ; preds = %6, %14, %7
  ret void
}

; Function Attrs: nounwind uwtable
define internal i64 @read_memory(i32 noundef %0, i64 noundef %1, i64 noundef %2, ptr noundef %3) #0 {
  %5 = alloca i64, align 8
  %6 = alloca i32, align 4
  %7 = alloca i64, align 8
  %8 = alloca i64, align 8
  %9 = alloca ptr, align 8
  %10 = alloca i64, align 8
  %11 = alloca [1 x %struct.iovec], align 16
  %12 = alloca [1 x %struct.iovec], align 16
  %13 = alloca i64, align 8
  %14 = alloca i64, align 8
  %15 = alloca i32, align 4
  store i32 %0, ptr %6, align 4, !tbaa !8
  store i64 %1, ptr %7, align 8, !tbaa !11
  store i64 %2, ptr %8, align 8, !tbaa !11
  store ptr %3, ptr %9, align 8, !tbaa !51
  call void @llvm.lifetime.start.p0(i64 8, ptr %10) #7
  store i64 0, ptr %10, align 8, !tbaa !11
  call void @llvm.lifetime.start.p0(i64 16, ptr %11) #7
  call void @llvm.lifetime.start.p0(i64 16, ptr %12) #7
  call void @llvm.lifetime.start.p0(i64 8, ptr %13) #7
  store i64 0, ptr %13, align 8, !tbaa !11
  call void @llvm.lifetime.start.p0(i64 8, ptr %14) #7
  store i64 0, ptr %14, align 8, !tbaa !11
  br label %16

16:                                               ; preds = %51, %4
  %17 = load ptr, ptr %9, align 8, !tbaa !51
  %18 = load i64, ptr %13, align 8, !tbaa !11
  %19 = getelementptr i8, ptr %17, i64 %18
  %20 = getelementptr [1 x %struct.iovec], ptr %11, i64 0, i64 0
  %21 = getelementptr inbounds nuw %struct.iovec, ptr %20, i32 0, i32 0
  store ptr %19, ptr %21, align 16, !tbaa !75
  %22 = load i64, ptr %8, align 8, !tbaa !11
  %23 = load i64, ptr %13, align 8, !tbaa !11
  %24 = sub i64 %22, %23
  %25 = getelementptr [1 x %struct.iovec], ptr %11, i64 0, i64 0
  %26 = getelementptr inbounds nuw %struct.iovec, ptr %25, i32 0, i32 1
  store i64 %24, ptr %26, align 8, !tbaa !77
  %27 = load i64, ptr %7, align 8, !tbaa !11
  %28 = load i64, ptr %13, align 8, !tbaa !11
  %29 = add i64 %27, %28
  %30 = inttoptr i64 %29 to ptr
  %31 = getelementptr [1 x %struct.iovec], ptr %12, i64 0, i64 0
  %32 = getelementptr inbounds nuw %struct.iovec, ptr %31, i32 0, i32 0
  store ptr %30, ptr %32, align 16, !tbaa !75
  %33 = load i64, ptr %8, align 8, !tbaa !11
  %34 = load i64, ptr %13, align 8, !tbaa !11
  %35 = sub i64 %33, %34
  %36 = getelementptr [1 x %struct.iovec], ptr %12, i64 0, i64 0
  %37 = getelementptr inbounds nuw %struct.iovec, ptr %36, i32 0, i32 1
  store i64 %35, ptr %37, align 8, !tbaa !77
  %38 = load i32, ptr %6, align 4, !tbaa !8
  %39 = getelementptr inbounds [1 x %struct.iovec], ptr %11, i64 0, i64 0
  %40 = getelementptr inbounds [1 x %struct.iovec], ptr %12, i64 0, i64 0
  %41 = call i64 @process_vm_readv(i32 noundef %38, ptr noundef %39, i64 noundef 1, ptr noundef %40, i64 noundef 1, i64 noundef 0) #7
  store i64 %41, ptr %14, align 8, !tbaa !11
  %42 = load i64, ptr %14, align 8, !tbaa !11
  %43 = icmp slt i64 %42, 0
  br i1 %43, label %44, label %47

44:                                               ; preds = %16
  %45 = load ptr, ptr @PyExc_OSError, align 8, !tbaa !3
  %46 = call ptr @PyErr_SetFromErrno(ptr noundef %45)
  store i64 -1, ptr %5, align 8
  store i32 1, ptr %15, align 4
  br label %60

47:                                               ; preds = %16
  %48 = load i64, ptr %14, align 8, !tbaa !11
  %49 = load i64, ptr %13, align 8, !tbaa !11
  %50 = add i64 %49, %48
  store i64 %50, ptr %13, align 8, !tbaa !11
  br label %51

51:                                               ; preds = %47
  %52 = load i64, ptr %14, align 8, !tbaa !11
  %53 = getelementptr [1 x %struct.iovec], ptr %11, i64 0, i64 0
  %54 = getelementptr inbounds nuw %struct.iovec, ptr %53, i32 0, i32 1
  %55 = load i64, ptr %54, align 8, !tbaa !77
  %56 = icmp ne i64 %52, %55
  br i1 %56, label %16, label %57, !llvm.loop !78

57:                                               ; preds = %51
  %58 = load i64, ptr %13, align 8, !tbaa !11
  store i64 %58, ptr %10, align 8, !tbaa !11
  %59 = load i64, ptr %10, align 8, !tbaa !11
  store i64 %59, ptr %5, align 8
  store i32 1, ptr %15, align 4
  br label %60

60:                                               ; preds = %57, %44
  call void @llvm.lifetime.end.p0(i64 8, ptr %14) #7
  call void @llvm.lifetime.end.p0(i64 8, ptr %13) #7
  call void @llvm.lifetime.end.p0(i64 16, ptr %12) #7
  call void @llvm.lifetime.end.p0(i64 16, ptr %11) #7
  call void @llvm.lifetime.end.p0(i64 8, ptr %10) #7
  %61 = load i64, ptr %5, align 8
  ret i64 %61
}

; Function Attrs: nounwind uwtable
define internal i32 @parse_code_object(i32 noundef %0, ptr noundef %1, ptr noundef %2, i64 noundef %3, ptr noundef %4) #0 {
  %6 = alloca i32, align 4
  %7 = alloca i32, align 4
  %8 = alloca ptr, align 8
  %9 = alloca ptr, align 8
  %10 = alloca i64, align 8
  %11 = alloca ptr, align 8
  %12 = alloca i64, align 8
  %13 = alloca i32, align 4
  %14 = alloca i32, align 4
  %15 = alloca ptr, align 8
  store i32 %0, ptr %7, align 4, !tbaa !8
  store ptr %1, ptr %8, align 8, !tbaa !3
  store ptr %2, ptr %9, align 8, !tbaa !41
  store i64 %3, ptr %10, align 8, !tbaa !11
  store ptr %4, ptr %11, align 8, !tbaa !39
  call void @llvm.lifetime.start.p0(i64 8, ptr %12) #7
  call void @llvm.lifetime.start.p0(i64 4, ptr %13) #7
  %16 = load i32, ptr %7, align 4, !tbaa !8
  %17 = load i64, ptr %10, align 8, !tbaa !11
  %18 = load ptr, ptr %9, align 8, !tbaa !41
  %19 = getelementptr inbounds nuw %struct._Py_DebugOffsets, ptr %18, i32 0, i32 7
  %20 = getelementptr inbounds nuw %struct._code_object, ptr %19, i32 0, i32 2
  %21 = load i64, ptr %20, align 8, !tbaa !79
  %22 = add i64 %17, %21
  %23 = call i64 @read_memory(i32 noundef %16, i64 noundef %22, i64 noundef 8, ptr noundef %12)
  %24 = trunc i64 %23 to i32
  store i32 %24, ptr %13, align 4, !tbaa !8
  %25 = load i32, ptr %13, align 4, !tbaa !8
  %26 = icmp slt i32 %25, 0
  br i1 %26, label %27, label %28

27:                                               ; preds = %5
  store i32 -1, ptr %6, align 4
  store i32 1, ptr %14, align 4
  br label %52

28:                                               ; preds = %5
  %29 = load i64, ptr %12, align 8, !tbaa !11
  %30 = inttoptr i64 %29 to ptr
  %31 = icmp eq ptr %30, null
  br i1 %31, label %32, label %34

32:                                               ; preds = %28
  %33 = load ptr, ptr @PyExc_RuntimeError, align 8, !tbaa !3
  call void @PyErr_SetString(ptr noundef %33, ptr noundef @.str.17)
  store i32 -1, ptr %6, align 4
  store i32 1, ptr %14, align 4
  br label %52

34:                                               ; preds = %28
  call void @llvm.lifetime.start.p0(i64 8, ptr %15) #7
  %35 = load i32, ptr %7, align 4, !tbaa !8
  %36 = load ptr, ptr %9, align 8, !tbaa !41
  %37 = load i64, ptr %12, align 8, !tbaa !11
  %38 = call ptr @read_py_str(i32 noundef %35, ptr noundef %36, i64 noundef %37, i64 noundef 256)
  store ptr %38, ptr %15, align 8, !tbaa !3
  %39 = load ptr, ptr %15, align 8, !tbaa !3
  %40 = icmp eq ptr %39, null
  br i1 %40, label %41, label %42

41:                                               ; preds = %34
  store i32 -1, ptr %6, align 4
  store i32 1, ptr %14, align 4
  br label %51

42:                                               ; preds = %34
  %43 = load ptr, ptr %8, align 8, !tbaa !3
  %44 = load ptr, ptr %15, align 8, !tbaa !3
  %45 = call i32 @PyList_Append(ptr noundef %43, ptr noundef %44)
  %46 = icmp eq i32 %45, -1
  br i1 %46, label %47, label %49

47:                                               ; preds = %42
  %48 = load ptr, ptr %15, align 8, !tbaa !3
  call void @Py_DECREF(ptr noundef %48)
  store i32 -1, ptr %6, align 4
  store i32 1, ptr %14, align 4
  br label %51

49:                                               ; preds = %42
  %50 = load ptr, ptr %15, align 8, !tbaa !3
  call void @Py_DECREF(ptr noundef %50)
  store i32 0, ptr %6, align 4
  store i32 1, ptr %14, align 4
  br label %51

51:                                               ; preds = %49, %47, %41
  call void @llvm.lifetime.end.p0(i64 8, ptr %15) #7
  br label %52

52:                                               ; preds = %51, %32, %27
  call void @llvm.lifetime.end.p0(i64 4, ptr %13) #7
  call void @llvm.lifetime.end.p0(i64 8, ptr %12) #7
  %53 = load i32, ptr %6, align 4
  ret i32 %53
}