; Function Attrs: nounwind uwtable
define internal fastcc range(i32 -1, 1) i32 @parse_code_object(i32 noundef %0, ptr noundef %1, ptr noundef nonnull readonly captures(none) %2, i64 noundef %3) unnamed_addr #0 {
  %5 = alloca [1 x %struct.iovec], align 16
  %6 = alloca [1 x %struct.iovec], align 16
  %7 = alloca i64, align 8
  call void @llvm.lifetime.start.p0(i64 8, ptr nonnull %7) #9
  %8 = getelementptr inbounds nuw i8, ptr %2, i64 296
  %9 = load i64, ptr %8, align 8, !tbaa !70
  %10 = add i64 %9, %3
  call void @llvm.lifetime.start.p0(i64 16, ptr nonnull %5) #9
  call void @llvm.lifetime.start.p0(i64 16, ptr nonnull %6) #9
  %11 = getelementptr inbounds nuw i8, ptr %5, i64 8
  %12 = getelementptr inbounds nuw i8, ptr %6, i64 8
  br label %13

13:                                               ; preds = %22, %4
  %.0.i = phi i64 [ 0, %4 ], [ %23, %22 ]
  %14 = getelementptr i8, ptr %7, i64 %.0.i
  store ptr %14, ptr %5, align 16, !tbaa !29
  %15 = sub i64 8, %.0.i
  store i64 %15, ptr %11, align 8, !tbaa !32
  %16 = add i64 %10, %.0.i
  %17 = inttoptr i64 %16 to ptr
  store ptr %17, ptr %6, align 16, !tbaa !29
  store i64 %15, ptr %12, align 8, !tbaa !32
  %18 = call i64 @process_vm_readv(i32 noundef %0, ptr noundef nonnull %5, i64 noundef 1, ptr noundef nonnull %6, i64 noundef 1, i64 noundef 0) #9
  %19 = icmp slt i64 %18, 0
  br i1 %19, label %read_memory.exit.thread, label %22

read_memory.exit.thread:                          ; preds = %13
  %20 = load ptr, ptr @PyExc_OSError, align 8, !tbaa !33
  %21 = call ptr @PyErr_SetFromErrno(ptr noundef %20) #9
  call void @llvm.lifetime.end.p0(i64 16, ptr nonnull %6) #9
  call void @llvm.lifetime.end.p0(i64 16, ptr nonnull %5) #9
  br label %42

22:                                               ; preds = %13
  %23 = add i64 %18, %.0.i
  %24 = load i64, ptr %11, align 8, !tbaa !32
  %.not.i12 = icmp eq i64 %18, %24
  br i1 %.not.i12, label %read_memory.exit, label %13, !llvm.loop !35

read_memory.exit:                                 ; preds = %22
  call void @llvm.lifetime.end.p0(i64 16, ptr nonnull %6) #9
  call void @llvm.lifetime.end.p0(i64 16, ptr nonnull %5) #9
  %25 = and i64 %23, 2147483648
  %.not = icmp eq i64 %25, 0
  br i1 %.not, label %26, label %42

26:                                               ; preds = %read_memory.exit
  %27 = load i64, ptr %7, align 8, !tbaa !8
  %28 = icmp eq i64 %27, 0
  br i1 %28, label %29, label %31

29:                                               ; preds = %26
  %30 = load ptr, ptr @PyExc_RuntimeError, align 8, !tbaa !33
  call void @PyErr_SetString(ptr noundef %30, ptr noundef nonnull @.str.17) #9
  br label %42

31:                                               ; preds = %26
  %32 = call fastcc ptr @read_py_str(i32 noundef %0, ptr noundef %2, i64 noundef %27, i64 noundef 256)
  %33 = icmp eq ptr %32, null
  br i1 %33, label %42, label %34

34:                                               ; preds = %31
  %35 = call i32 @PyList_Append(ptr noundef %1, ptr noundef nonnull %32) #9
  %36 = icmp eq i32 %35, -1
  %37 = load i32, ptr %32, align 8, !tbaa !3
  %.not.i = icmp sgt i32 %37, -1
  br i1 %.not.i, label %38, label %Py_DECREF.exit

38:                                               ; preds = %34
  %39 = add nsw i32 %37, -1
  store i32 %39, ptr %32, align 8, !tbaa !3
  %40 = icmp eq i32 %39, 0
  br i1 %40, label %41, label %Py_DECREF.exit

41:                                               ; preds = %38
  call void @_Py_Dealloc(ptr noundef nonnull %32) #9
  br label %Py_DECREF.exit

Py_DECREF.exit:                                   ; preds = %34, %38, %41
  %. = sext i1 %36 to i32
  br label %42

42:                                               ; preds = %read_memory.exit.thread, %31, %Py_DECREF.exit, %read_memory.exit, %29
  %.0 = phi i32 [ -1, %29 ], [ -1, %read_memory.exit ], [ -1, %31 ], [ %., %Py_DECREF.exit ], [ -1, %read_memory.exit.thread ]
  call void @llvm.lifetime.end.p0(i64 8, ptr nonnull %7) #9
  ret i32 %.0
}